; Function Attrs: mustprogress uwtable
define dso_local range(i8 0, 2) i8 @_ZN4absl19str_format_internal17FormatConvertImplEeNS0_24FormatConversionSpecImplEPNS0_14FormatSinkImplE(x86_fp80 noundef %0, i64 %1, i32 %2, ptr noundef %3) local_unnamed_addr #0 {
  %5 = alloca %"class.absl::str_format_internal::FormatConversionSpecImpl", align 8
  call void @llvm.lifetime.start.p0(i64 12, ptr nonnull %5)
  store i64 %1, ptr %5, align 8
  %.sroa.2.0..sroa_idx.i = getelementptr inbounds nuw i8, ptr %5, i64 8
  store i32 %2, ptr %.sroa.2.0..sroa_idx.i, align 8
  %6 = trunc i64 %1 to i8
  %7 = icmp eq i8 %6, 18
  br i1 %7, label %.thread.i, label %8

.thread.i:                                        ; preds = %4
  store i8 12, ptr %5, align 8, !tbaa !42
  br label %10

8:                                                ; preds = %4
  %9 = and i8 %6, -8
  %or.cond13.i.i = icmp eq i8 %9, 8
  br i1 %or.cond13.i.i, label %10, label %_ZN4absl19str_format_internal12_GLOBAL__N_115ConvertFloatArgIeEEbT_NS0_24FormatConversionSpecImplEPNS0_14FormatSinkImplE.exit

10:                                               ; preds = %8, %.thread.i
  %11 = call noundef zeroext i1 @_ZN4absl19str_format_internal16ConvertFloatImplEeRKNS0_24FormatConversionSpecImplEPNS0_14FormatSinkImplE(x86_fp80 noundef %0, ptr noundef nonnull align 4 dereferenceable(12) %5, ptr noundef %3)
  %12 = zext i1 %11 to i8
  br label %_ZN4absl19str_format_internal12_GLOBAL__N_115ConvertFloatArgIeEEbT_NS0_24FormatConversionSpecImplEPNS0_14FormatSinkImplE.exit

_ZN4absl19str_format_internal12_GLOBAL__N_115ConvertFloatArgIeEEbT_NS0_24FormatConversionSpecImplEPNS0_14FormatSinkImplE.exit: ; preds = %8, %10
  %13 = phi i8 [ 0, %8 ], [ %12, %10 ]
  call void @llvm.lifetime.end.p0(i64 12, ptr nonnull %5)
  ret i8 %13
}